target datalayout = "e-m:e-p270:32:32-p271:32:32-p272:64:64-i64:64-i128:128-f80:128-n8:16:32:64-S128"
target triple = "x86_64-pc-linux-gnu"

%"class.std::vector" = type { %"struct.std::_Vector_base" }
%"struct.std::_Vector_base" = type { %"struct.std::_Vector_base<p2t::Edge *, std::allocator<p2t::Edge *>>::_Vector_impl" }
%"struct.std::_Vector_base<p2t::Edge *, std::allocator<p2t::Edge *>>::_Vector_impl" = type { %"struct.std::_Vector_base<p2t::Edge *, std::allocator<p2t::Edge *>>::_Vector_impl_data" }
%"struct.std::_Vector_base<p2t::Edge *, std::allocator<p2t::Edge *>>::_Vector_impl_data" = type { ptr, ptr, ptr }
%"struct.p2t::Node" = type { ptr, ptr, ptr, ptr, double }
%"class.p2t::SweepContext" = type { %"class.std::vector", %"struct.p2t::SweepContext::Basin", %"struct.p2t::SweepContext::EdgeEvent", %"class.std::vector.0", %"class.std::__cxx11::list", %"class.std::vector.8", ptr, ptr, ptr, ptr, ptr, ptr }
%"struct.p2t::SweepContext::Basin" = type <{ ptr, ptr, ptr, double, i8, [7 x i8] }>
%"struct.p2t::SweepContext::EdgeEvent" = type <{ ptr, i8, [7 x i8] }>
%"class.std::vector.0" = type { %"struct.std::_Vector_base.1" }
%"struct.std::_Vector_base.1" = type { %"struct.std::_Vector_base<p2t::Triangle *, std::allocator<p2t::Triangle *>>::_Vector_impl" }
%"struct.std::_Vector_base<p2t::Triangle *, std::allocator<p2t::Triangle *>>::_Vector_impl" = type { %"struct.std::_Vector_base<p2t::Triangle *, std::allocator<p2t::Triangle *>>::_Vector_impl_data" }
%"struct.std::_Vector_base<p2t::Triangle *, std::allocator<p2t::Triangle *>>::_Vector_impl_data" = type { ptr, ptr, ptr }
%"class.std::__cxx11::list" = type { %"class.std::__cxx11::_List_base" }
%"class.std::__cxx11::_List_base" = type { %"struct.std::__cxx11::_List_base<p2t::Triangle *, std::allocator<p2t::Triangle *>>::_List_impl" }
%"struct.std::__cxx11::_List_base<p2t::Triangle *, std::allocator<p2t::Triangle *>>::_List_impl" = type { %"struct.std::__detail::_List_node_header" }
%"struct.std::__detail::_List_node_header" = type { %"struct.std::__detail::_List_node_base", i64 }
%"struct.std::__detail::_List_node_base" = type { ptr, ptr }
%"class.std::vector.8" = type { %"struct.std::_Vector_base.9" }
%"struct.std::_Vector_base.9" = type { %"struct.std::_Vector_base<p2t::Point *, std::allocator<p2t::Point *>>::_Vector_impl" }
%"struct.std::_Vector_base<p2t::Point *, std::allocator<p2t::Point *>>::_Vector_impl" = type { %"struct.std::_Vector_base<p2t::Point *, std::allocator<p2t::Point *>>::_Vector_impl_data" }
%"struct.std::_Vector_base<p2t::Point *, std::allocator<p2t::Point *>>::_Vector_impl_data" = type { ptr, ptr, ptr }
%"class.p2t::AdvancingFront" = type { ptr, ptr, ptr }

; Function Attrs: inlinehint mustprogress nounwind uwtable
define linkonce_odr hidden noundef ptr @_ZN3p2t14AdvancingFront4headEv(ptr noundef nonnull align 8 dereferenceable(24) %0) #5 comdat align 2 {
  %2 = alloca ptr, align 8
  store ptr %0, ptr %2, align 8
  %3 = load ptr, ptr %2, align 8
  %4 = getelementptr inbounds nuw %"class.p2t::AdvancingFront", ptr %3, i32 0, i32 0
  %5 = load ptr, ptr %4, align 8
  ret ptr %5
}

; Function Attrs: inlinehint mustprogress nounwind uwtable
define linkonce_odr hidden noundef ptr @_ZNK3p2t12SweepContext5frontEv(ptr noundef nonnull align 8 dereferenceable(200) %0) #5 comdat align 2 {
  %2 = alloca ptr, align 8
  store ptr %0, ptr %2, align 8
  %3 = load ptr, ptr %2, align 8
  %4 = getelementptr inbounds nuw %"class.p2t::SweepContext", ptr %3, i32 0, i32 6
  %5 = load ptr, ptr %4, align 8
  ret ptr %5
}

; Function Attrs: mustprogress uwtable
define hidden void @_ZN3p2t5Sweep19FinalizationPolygonERNS_12SweepContextE(ptr noundef nonnull align 8 dereferenceable(24) %0, ptr noundef nonnull align 8 dereferenceable(200) %1) #0 align 2 {
  %3 = alloca ptr, align 8
  %4 = alloca ptr, align 8
  %5 = alloca ptr, align 8
  %6 = alloca ptr, align 8
  store ptr %0, ptr %3, align 8
  store ptr %1, ptr %4, align 8
  call void @llvm.lifetime.start.p0(i64 8, ptr %5) #14
  %7 = load ptr, ptr %4, align 8
  %8 = call noundef ptr @_ZNK3p2t12SweepContext5frontEv(ptr noundef nonnull align 8 dereferenceable(200) %7)
  %9 = call noundef ptr @_ZN3p2t14AdvancingFront4headEv(ptr noundef nonnull align 8 dereferenceable(24) %8)
  %10 = getelementptr inbounds nuw %"struct.p2t::Node", ptr %9, i32 0, i32 2
  %11 = load ptr, ptr %10, align 8
  %12 = getelementptr inbounds nuw %"struct.p2t::Node", ptr %11, i32 0, i32 1
  %13 = load ptr, ptr %12, align 8
  store ptr %13, ptr %5, align 8
  call void @llvm.lifetime.start.p0(i64 8, ptr %6) #14
  %14 = load ptr, ptr %4, align 8
  %15 = call noundef ptr @_ZNK3p2t12SweepContext5frontEv(ptr noundef nonnull align 8 dereferenceable(200) %14)
  %16 = call noundef ptr @_ZN3p2t14AdvancingFront4headEv(ptr noundef nonnull align 8 dereferenceable(24) %15)
  %17 = getelementptr inbounds nuw %"struct.p2t::Node", ptr %16, i32 0, i32 2
  %18 = load ptr, ptr %17, align 8
  %19 = getelementptr inbounds nuw %"struct.p2t::Node", ptr %18, i32 0, i32 0
  %20 = load ptr, ptr %19, align 8
  store ptr %20, ptr %6, align 8
  br label %21

21:                                               ; preds = %31, %2
  %22 = load ptr, ptr %5, align 8
  %23 = icmp ne ptr %22, null
  br i1 %23, label %24, label %29

24:                                               ; preds = %21
  %25 = load ptr, ptr %5, align 8
  %26 = load ptr, ptr %6, align 8
  %27 = call noundef zeroext i1 @_ZN3p2t8Triangle20GetConstrainedEdgeCWERKNS_5PointE(ptr noundef nonnull align 8 dereferenceable(57) %25, ptr noundef nonnull align 8 dereferenceable(40) %26)
  %28 = xor i1 %27, true
  br label %29

29:                                               ; preds = %24, %21
  %30 = phi i1 [ false, %21 ], [ %28, %24 ]
  br i1 %30, label %31, label %35

31:                                               ; preds = %29
  %32 = load ptr, ptr %5, align 8
  %33 = load ptr, ptr %6, align 8
  %34 = call noundef ptr @_ZN3p2t8Triangle11NeighborCCWERKNS_5PointE(ptr noundef nonnull align 8 dereferenceable(57) %32, ptr noundef nonnull align 8 dereferenceable(40) %33)
  store ptr %34, ptr %5, align 8
  br label %21, !llvm.loop !5

35:                                               ; preds = %29
  %36 = load ptr, ptr %5, align 8
  %37 = icmp ne ptr %36, null
  br i1 %37, label %38, label %41

38:                                               ; preds = %35
  %39 = load ptr, ptr %4, align 8
  %40 = load ptr, ptr %5, align 8
  call void @_ZN3p2t12SweepContext9MeshCleanERNS_8TriangleE(ptr noundef nonnull align 8 dereferenceable(200) %39, ptr noundef nonnull align 8 dereferenceable(57) %40)
  br label %41

41:                                               ; preds = %38, %35
  call void @llvm.lifetime.end.p0(i64 8, ptr %6) #14
  call void @llvm.lifetime.end.p0(i64 8, ptr %5) #14
  ret void
}