; Function Attrs: mustprogress uwtable
define hidden void @_ZN3p2t5Sweep19FinalizationPolygonERNS_12SweepContextE(ptr noundef nonnull readnone align 8 captures(none) dereferenceable(24) %0, ptr noundef nonnull align 8 dereferenceable(200) %1) local_unnamed_addr #2 align 2 {
  %3 = getelementptr inbounds nuw i8, ptr %1, i64 152
  %4 = load ptr, ptr %3, align 8
  %5 = load ptr, ptr %4, align 8
  %6 = getelementptr inbounds nuw i8, ptr %5, i64 16
  %7 = load ptr, ptr %6, align 8
  %8 = getelementptr inbounds nuw i8, ptr %7, i64 8
  %9 = load ptr, ptr %8, align 8
  %10 = load ptr, ptr %7, align 8
  %.not12 = icmp eq ptr %9, null
  br i1 %.not12, label %.critedge10, label %.lr.ph

.lr.ph:                                           ; preds = %2, %12
  %.013 = phi ptr [ %13, %12 ], [ %9, %2 ]
  %11 = tail call noundef zeroext i1 @_ZN3p2t8Triangle20GetConstrainedEdgeCWERKNS_5PointE(ptr noundef nonnull align 8 dereferenceable(57) %.013, ptr noundef nonnull align 8 dereferenceable(40) %10)
  br i1 %11, label %.critedge, label %12

12:                                               ; preds = %.lr.ph
  %13 = tail call noundef ptr @_ZN3p2t8Triangle11NeighborCCWERKNS_5PointE(ptr noundef nonnull align 8 dereferenceable(57) %.013, ptr noundef nonnull align 8 dereferenceable(40) %10)
  %.not = icmp eq ptr %13, null
  br i1 %.not, label %.critedge10, label %.lr.ph, !llvm.loop !3

.critedge:                                        ; preds = %.lr.ph
  tail call void @_ZN3p2t12SweepContext9MeshCleanERNS_8TriangleE(ptr noundef nonnull align 8 dereferenceable(200) %1, ptr noundef nonnull align 8 dereferenceable(57) %.013)
  br label %.critedge10

.critedge10:                                      ; preds = %12, %2, %.critedge
  ret void
}